target datalayout = "e-m:e-p270:32:32-p271:32:32-p272:64:64-i64:64-i128:128-f80:128-n8:16:32:64-S128"
target triple = "x86_64-pc-linux-gnu"

%struct._phpdbg_param = type { i32, i64, i64, %struct.anon, %struct.anon.0, ptr, i64, ptr, ptr }
%struct.anon = type { ptr, i64 }
%struct.anon.0 = type { ptr, ptr }

@.str = private unnamed_addr constant [6 x i8] c"stack\00", align 1
@.str.1 = private unnamed_addr constant [6 x i8] c"empty\00", align 1
@.str.2 = private unnamed_addr constant [8 x i8] c"address\00", align 1
@.str.3 = private unnamed_addr constant [8 x i8] c"numeric\00", align 1
@.str.4 = private unnamed_addr constant [7 x i8] c"method\00", align 1
@.str.5 = private unnamed_addr constant [16 x i8] c"function opline\00", align 1
@.str.6 = private unnamed_addr constant [14 x i8] c"method opline\00", align 1
@.str.7 = private unnamed_addr constant [20 x i8] c"file or file opline\00", align 1
@.str.8 = private unnamed_addr constant [7 x i8] c"string\00", align 1
@.str.9 = private unnamed_addr constant [8 x i8] c"unknown\00", align 1

; Function Attrs: nounwind uwtable
define ptr @phpdbg_get_param_type(ptr noundef %0) #0 {
  %2 = alloca ptr, align 8
  %3 = alloca ptr, align 8
  store ptr %0, ptr %3, align 8
  %4 = load ptr, ptr %3, align 8
  %5 = getelementptr inbounds %struct._phpdbg_param, ptr %4, i32 0, i32 0
  %6 = load i32, ptr %5, align 8
  switch i32 %6, label %16 [
    i32 9, label %7
    i32 0, label %8
    i32 1, label %9
    i32 6, label %10
    i32 4, label %11
    i32 7, label %12
    i32 8, label %13
    i32 2, label %14
    i32 5, label %15
  ]

7:                                                ; preds = %1
  store ptr @.str, ptr %2, align 8
  br label %17

8:                                                ; preds = %1
  store ptr @.str.1, ptr %2, align 8
  br label %17

9:                                                ; preds = %1
  store ptr @.str.2, ptr %2, align 8
  br label %17

10:                                               ; preds = %1
  store ptr @.str.3, ptr %2, align 8
  br label %17

11:                                               ; preds = %1
  store ptr @.str.4, ptr %2, align 8
  br label %17

12:                                               ; preds = %1
  store ptr @.str.5, ptr %2, align 8
  br label %17

13:                                               ; preds = %1
  store ptr @.str.6, ptr %2, align 8
  br label %17

14:                                               ; preds = %1
  store ptr @.str.7, ptr %2, align 8
  br label %17

15:                                               ; preds = %1
  store ptr @.str.8, ptr %2, align 8
  br label %17

16:                                               ; preds = %1
  store ptr @.str.9, ptr %2, align 8
  br label %17

17:                                               ; preds = %16, %15, %14, %13, %12, %11, %10, %9, %8, %7
  %18 = load ptr, ptr %2, align 8
  ret ptr %18
}